target datalayout = "e-m:e-p270:32:32-p271:32:32-p272:64:64-i64:64-i128:128-f80:128-n8:16:32:64-S128"
target triple = "x86_64-pc-linux-gnu"

@tap_out = internal global ptr null, align 8
@io_lock = internal global ptr null, align 8
@.str.2 = private unnamed_addr constant [40 x i8] c"../openssl/test/testutil/basic_output.c\00", align 1
@.str.6 = private unnamed_addr constant [56 x i8] c"assertion failed: CRYPTO_THREAD_write_lock(io_lock) > 0\00", align 1

; Function Attrs: inlinehint nounwind uwtable
define internal void @test_io_unlock() #4 {
  %1 = load ptr, ptr @io_lock, align 8, !tbaa !17
  %2 = call i32 @CRYPTO_THREAD_unlock(ptr noundef %1)
  ret void
}

; Function Attrs: inlinehint nounwind uwtable
define internal void @test_io_lock() #4 {
  %1 = load ptr, ptr @io_lock, align 8, !tbaa !17
  %2 = call i32 @CRYPTO_THREAD_write_lock(ptr noundef %1)
  %3 = icmp sgt i32 %2, 0
  br i1 %3, label %4, label %5

4:                                                ; preds = %0
  br label %7

5:                                                ; preds = %0
  call void @OPENSSL_die(ptr noundef @.str.6, ptr noundef @.str.2, i32 noundef 191) #6
  unreachable

6:                                                ; No predecessors!
  br label %7

7:                                                ; preds = %6, %4
  ret void
}

; Function Attrs: nounwind uwtable
define i32 @test_vprintf_tapout(ptr noundef %0, ptr noundef %1) #0 {
  %3 = alloca ptr, align 8
  %4 = alloca ptr, align 8
  %5 = alloca i32, align 4
  store ptr %0, ptr %3, align 8, !tbaa !18
  store ptr %1, ptr %4, align 8, !tbaa !20
  call void @llvm.lifetime.start.p0(i64 4, ptr %5) #5
  call void @test_io_lock()
  %6 = load ptr, ptr @tap_out, align 8, !tbaa !3
  %7 = load ptr, ptr %3, align 8, !tbaa !18
  %8 = load ptr, ptr %4, align 8, !tbaa !20
  %9 = call i32 @BIO_vprintf(ptr noundef %6, ptr noundef %7, ptr noundef %8)
  store i32 %9, ptr %5, align 4, !tbaa !13
  call void @test_io_unlock()
  %10 = load i32, ptr %5, align 4, !tbaa !13
  call void @llvm.lifetime.end.p0(i64 4, ptr %5) #5
  ret i32 %10
}