; Function Attrs: nounwind uwtable
define i32 @test_vprintf_tapout(ptr noundef %0, ptr noundef %1) local_unnamed_addr #0 {
  %3 = load ptr, ptr @io_lock, align 8, !tbaa !13
  %4 = tail call i32 @CRYPTO_THREAD_write_lock(ptr noundef %3) #3
  %5 = icmp sgt i32 %4, 0
  br i1 %5, label %test_io_lock.exit, label %6

6:                                                ; preds = %2
  tail call void @OPENSSL_die(ptr noundef nonnull @.str.6, ptr noundef nonnull @.str.2, i32 noundef 191) #4
  unreachable

test_io_lock.exit:                                ; preds = %2
  %7 = load ptr, ptr @tap_out, align 8, !tbaa !12
  %8 = tail call i32 @BIO_vprintf(ptr noundef %7, ptr noundef %0, ptr noundef %1) #3
  %9 = load ptr, ptr @io_lock, align 8, !tbaa !13
  %10 = tail call i32 @CRYPTO_THREAD_unlock(ptr noundef %9) #3
  ret i32 %8
}